target datalayout = "e-m:e-p270:32:32-p271:32:32-p272:64:64-i64:64-i128:128-f80:128-n8:16:32:64-S128"
target triple = "x86_64-pc-linux-gnu"

%struct._someip_parameter_list = type { i32, i32, i32, i32, i8, i32, ptr }

@hf_payload_unparsed = internal global i32 0, align 4
@ett_someip_payload = internal global i32 0, align 4
@someip_deserializer_wtlv_default = internal global i8 0, align 1
@data_someip_parameter_list = internal global ptr null, align 8

; Function Attrs: nounwind null_pointer_is_valid sspstrong uwtable
define internal i64 @someip_parameter_key(i16 noundef zeroext %0, i16 noundef zeroext %1, i8 noundef zeroext %2, i8 noundef zeroext %3) #7 {
  %5 = alloca i16, align 2
  %6 = alloca i16, align 2
  %7 = alloca i8, align 1
  %8 = alloca i8, align 1
  store i16 %0, ptr %5, align 2
  store i16 %1, ptr %6, align 2
  store i8 %2, ptr %7, align 1
  store i8 %3, ptr %8, align 1
  %9 = load i16, ptr %5, align 2
  %10 = zext i16 %9 to i64
  %11 = and i64 %10, 65535
  %12 = load i16, ptr %6, align 2
  %13 = zext i16 %12 to i64
  %14 = and i64 %13, 65535
  %15 = shl i64 %14, 16
  %16 = or i64 %11, %15
  %17 = load i8, ptr %7, align 1
  %18 = zext i8 %17 to i64
  %19 = and i64 %18, 255
  %20 = shl i64 %19, 32
  %21 = or i64 %16, %20
  %22 = load i8, ptr %8, align 1
  %23 = zext i8 %22 to i64
  %24 = and i64 %23, 255
  %25 = shl i64 %24, 40
  %26 = or i64 %21, %25
  ret i64 %26
}

; Function Attrs: null_pointer_is_valid sspstrong uwtable
define internal ptr @get_parameter_config(i16 noundef zeroext %0, i16 noundef zeroext %1, i8 noundef zeroext %2, i8 noundef zeroext %3) #0 {
  %5 = alloca ptr, align 8
  %6 = alloca i16, align 2
  %7 = alloca i16, align 2
  %8 = alloca i8, align 1
  %9 = alloca i8, align 1
  %10 = alloca i64, align 8
  store i16 %0, ptr %6, align 2
  store i16 %1, ptr %7, align 2
  store i8 %2, ptr %8, align 1
  store i8 %3, ptr %9, align 1
  %11 = load ptr, ptr @data_someip_parameter_list, align 8
  %12 = icmp eq ptr %11, null
  br i1 %12, label %13, label %14

13:                                               ; preds = %4
  store ptr null, ptr %5, align 8
  br label %22

14:                                               ; preds = %4
  call void @llvm.lifetime.start.p0(i64 8, ptr %10) #19
  %15 = load i16, ptr %6, align 2
  %16 = load i16, ptr %7, align 2
  %17 = load i8, ptr %8, align 1
  %18 = load i8, ptr %9, align 1
  %19 = call i64 @someip_parameter_key(i16 noundef zeroext %15, i16 noundef zeroext %16, i8 noundef zeroext %17, i8 noundef zeroext %18)
  store i64 %19, ptr %10, align 8
  %20 = load ptr, ptr @data_someip_parameter_list, align 8
  %21 = call ptr @g_hash_table_lookup(ptr noundef %20, ptr noundef %10)
  store ptr %21, ptr %5, align 8
  call void @llvm.lifetime.end.p0(i64 8, ptr %10) #19
  br label %22

22:                                               ; preds = %14, %13
  %23 = load ptr, ptr %5, align 8
  ret ptr %23
}

; Function Attrs: null_pointer_is_valid sspstrong uwtable
define internal void @dissect_someip_payload(ptr noundef %0, ptr noundef %1, ptr noundef %2, i16 noundef zeroext %3, i16 noundef zeroext %4, i8 noundef zeroext %5, i8 noundef zeroext %6) #0 {
  %8 = alloca ptr, align 8
  %9 = alloca ptr, align 8
  %10 = alloca ptr, align 8
  %11 = alloca i16, align 2
  %12 = alloca i16, align 2
  %13 = alloca i8, align 1
  %14 = alloca i8, align 1
  %15 = alloca i32, align 4
  %16 = alloca i32, align 4
  %17 = alloca ptr, align 8
  %18 = alloca ptr, align 8
  %19 = alloca i32, align 4
  store ptr %0, ptr %8, align 8
  store ptr %1, ptr %9, align 8
  store ptr %2, ptr %10, align 8
  store i16 %3, ptr %11, align 2
  store i16 %4, ptr %12, align 2
  store i8 %5, ptr %13, align 1
  store i8 %6, ptr %14, align 1
  call void @llvm.lifetime.start.p0(i64 4, ptr %15) #19
  store i32 -1, ptr %15, align 4
  call void @llvm.lifetime.start.p0(i64 4, ptr %16) #19
  store i32 0, ptr %16, align 4
  call void @llvm.lifetime.start.p0(i64 8, ptr %17) #19
  store ptr null, ptr %17, align 8
  %20 = load ptr, ptr %8, align 8
  %21 = call i32 @tvb_captured_length_remaining(ptr noundef %20, i32 noundef 0)
  store i32 %21, ptr %15, align 4
  %22 = load ptr, ptr %10, align 8
  %23 = load i32, ptr @ett_someip_payload, align 4
  %24 = call ptr @proto_item_add_subtree(ptr noundef %22, i32 noundef %23)
  store ptr %24, ptr %17, align 8
  call void @llvm.lifetime.start.p0(i64 8, ptr %18) #19
  %25 = load i16, ptr %11, align 2
  %26 = load i16, ptr %12, align 2
  %27 = load i8, ptr %13, align 1
  %28 = load i8, ptr %14, align 1
  %29 = call ptr @get_parameter_config(i16 noundef zeroext %25, i16 noundef zeroext %26, i8 noundef zeroext %27, i8 noundef zeroext %28)
  store ptr %29, ptr %18, align 8
  %30 = load ptr, ptr %18, align 8
  %31 = icmp eq ptr %30, null
  br i1 %31, label %32, label %45

32:                                               ; preds = %7
  %33 = load i8, ptr @someip_deserializer_wtlv_default, align 1, !range !6, !noundef !7
  %34 = trunc i8 %33 to i1
  br i1 %34, label %35, label %43

35:                                               ; preds = %32
  %36 = load ptr, ptr %8, align 8
  %37 = load ptr, ptr %9, align 8
  %38 = load ptr, ptr %17, align 8
  %39 = load i32, ptr %16, align 4
  %40 = call i32 @dissect_someip_payload_parameters(ptr noundef %36, ptr noundef %37, ptr noundef %38, i32 noundef %39, ptr noundef null, i32 noundef 0, i1 noundef zeroext true)
  %41 = load i32, ptr %16, align 4
  %42 = add i32 %41, %40
  store i32 %42, ptr %16, align 4
  br label %44

43:                                               ; preds = %32
  store i32 1, ptr %19, align 4
  br label %77

44:                                               ; preds = %35
  br label %63

45:                                               ; preds = %7
  %46 = load ptr, ptr %8, align 8
  %47 = load ptr, ptr %9, align 8
  %48 = load ptr, ptr %17, align 8
  %49 = load i32, ptr %16, align 4
  %50 = load ptr, ptr %18, align 8
  %51 = getelementptr inbounds nuw %struct._someip_parameter_list, ptr %50, i32 0, i32 6
  %52 = load ptr, ptr %51, align 8
  %53 = load ptr, ptr %18, align 8
  %54 = getelementptr inbounds nuw %struct._someip_parameter_list, ptr %53, i32 0, i32 5
  %55 = load i32, ptr %54, align 4
  %56 = load ptr, ptr %18, align 8
  %57 = getelementptr inbounds nuw %struct._someip_parameter_list, ptr %56, i32 0, i32 4
  %58 = load i8, ptr %57, align 8, !range !6, !noundef !7
  %59 = trunc i8 %58 to i1
  %60 = call i32 @dissect_someip_payload_parameters(ptr noundef %46, ptr noundef %47, ptr noundef %48, i32 noundef %49, ptr noundef %52, i32 noundef %55, i1 noundef zeroext %59)
  %61 = load i32, ptr %16, align 4
  %62 = add i32 %61, %60
  store i32 %62, ptr %16, align 4
  br label %63

63:                                               ; preds = %45, %44
  %64 = load i32, ptr %15, align 4
  %65 = load i32, ptr %16, align 4
  %66 = icmp sgt i32 %64, %65
  br i1 %66, label %67, label %76

67:                                               ; preds = %63
  %68 = load ptr, ptr %17, align 8
  %69 = load i32, ptr @hf_payload_unparsed, align 4
  %70 = load ptr, ptr %8, align 8
  %71 = load i32, ptr %16, align 4
  %72 = load i32, ptr %15, align 4
  %73 = load i32, ptr %16, align 4
  %74 = sub i32 %72, %73
  %75 = call ptr @proto_tree_add_item(ptr noundef %68, i32 noundef %69, ptr noundef %70, i32 noundef %71, i32 noundef %74, i32 noundef 0)
  br label %76

76:                                               ; preds = %67, %63
  store i32 0, ptr %19, align 4
  br label %77

77:                                               ; preds = %76, %43
  call void @llvm.lifetime.end.p0(i64 8, ptr %18) #19
  call void @llvm.lifetime.end.p0(i64 8, ptr %17) #19
  call void @llvm.lifetime.end.p0(i64 4, ptr %16) #19
  call void @llvm.lifetime.end.p0(i64 4, ptr %15) #19
  %78 = load i32, ptr %19, align 4
  switch i32 %78, label %80 [
    i32 0, label %79
    i32 1, label %79
  ]

79:                                               ; preds = %77, %77
  ret void

80:                                               ; preds = %77
  unreachable
}