; Function Attrs: null_pointer_is_valid sspstrong uwtable
define internal fastcc void @dissect_someip_payload(ptr noundef nonnull %0, ptr noundef %1, ptr noundef %2, i16 noundef zeroext %3, i16 noundef zeroext %4, i8 noundef zeroext %5, i8 noundef zeroext range(i8 0, -32) %6) unnamed_addr #0 {
  %8 = alloca i64, align 8
  %9 = tail call i32 @tvb_captured_length_remaining(ptr noundef nonnull %0, i32 noundef 0)
  %10 = load i32, ptr @ett_someip_payload, align 4
  %11 = tail call ptr @proto_item_add_subtree(ptr noundef %2, i32 noundef %10)
  %12 = load ptr, ptr @data_someip_parameter_list, align 8
  %13 = icmp eq ptr %12, null
  br i1 %13, label %get_parameter_config.exit.thread, label %get_parameter_config.exit

get_parameter_config.exit:                        ; preds = %7
  call void @llvm.lifetime.start.p0(i64 8, ptr nonnull %8) #19
  %14 = zext i16 %3 to i64
  %15 = zext i16 %4 to i64
  %16 = shl nuw nsw i64 %15, 16
  %17 = or disjoint i64 %16, %14
  %18 = zext i8 %5 to i64
  %19 = shl nuw nsw i64 %18, 32
  %20 = or disjoint i64 %17, %19
  %21 = zext i8 %6 to i64
  %22 = shl nuw nsw i64 %21, 40
  %23 = or disjoint i64 %20, %22
  store i64 %23, ptr %8, align 8
  %24 = call ptr @g_hash_table_lookup(ptr noundef nonnull %12, ptr noundef nonnull %8)
  call void @llvm.lifetime.end.p0(i64 8, ptr nonnull %8) #19
  %25 = icmp eq ptr %24, null
  br i1 %25, label %get_parameter_config.exit.thread, label %30

get_parameter_config.exit.thread:                 ; preds = %7, %get_parameter_config.exit
  %26 = load i8, ptr @someip_deserializer_wtlv_default, align 1, !range !6, !noundef !7
  %27 = trunc nuw i8 %26 to i1
  br i1 %27, label %28, label %45

28:                                               ; preds = %get_parameter_config.exit.thread
  %29 = call fastcc i32 @dissect_someip_payload_parameters(ptr noundef nonnull %0, ptr noundef %1, ptr noundef %11, i32 noundef 0, ptr noundef null, i32 noundef 0, i1 noundef zeroext true)
  br label %39

30:                                               ; preds = %get_parameter_config.exit
  %31 = getelementptr inbounds nuw i8, ptr %24, i64 24
  %32 = load ptr, ptr %31, align 8
  %33 = getelementptr inbounds nuw i8, ptr %24, i64 20
  %34 = load i32, ptr %33, align 4
  %35 = getelementptr inbounds nuw i8, ptr %24, i64 16
  %36 = load i8, ptr %35, align 8, !range !6, !noundef !7
  %37 = trunc nuw i8 %36 to i1
  %38 = call fastcc i32 @dissect_someip_payload_parameters(ptr noundef nonnull %0, ptr noundef %1, ptr noundef %11, i32 noundef 0, ptr noundef %32, i32 noundef %34, i1 noundef zeroext %37)
  br label %39

39:                                               ; preds = %30, %28
  %.0 = phi i32 [ %29, %28 ], [ %38, %30 ]
  %40 = icmp sgt i32 %9, %.0
  br i1 %40, label %41, label %45

41:                                               ; preds = %39
  %42 = load i32, ptr @hf_payload_unparsed, align 4
  %43 = sub i32 %9, %.0
  %44 = call ptr @proto_tree_add_item(ptr noundef %11, i32 noundef %42, ptr noundef nonnull %0, i32 noundef %.0, i32 noundef %43, i32 noundef 0)
  br label %45

45:                                               ; preds = %39, %41, %get_parameter_config.exit.thread
  ret void
}